target datalayout = "e-m:e-p270:32:32-p271:32:32-p272:64:64-i64:64-i128:128-f80:128-n8:16:32:64-S128"
target triple = "x86_64-pc-linux-gnu"

%struct.MpegEncContext = type { ptr, i32, i32, i32, [12 x i32], i32, %struct.ScanTable, %struct.ScanTable, [64 x i8], [64 x i8], ptr, ptr, i32, i32, i32, i32, i32, i32, i32, i32, i32, i32, i32, i32, i32, i32, i32, i32, i32, i32, i32, i32, i64, i64, ptr, %struct.BufferPoolContext, i32, i32, %union.anon, i32, %struct.MPVWorkPicture, %struct.MPVWorkPicture, %struct.MPVWorkPicture, i32, [3 x i32], ptr, [3 x ptr], ptr, ptr, ptr, ptr, ptr, ptr, [3 x ptr], i32, ptr, ptr, ptr, ptr, %struct.ScratchpadContext, i32, i32, i32, i32, i32, i32, %struct.BlockDSPContext, %struct.H264ChromaContext, %struct.HpelDSPContext, %struct.IDCTDSPContext, %struct.QpelDSPContext, %struct.VideoDSPContext, %struct.H263DSPContext, ptr, [2 x [2 x ptr]], i32, i32, [2 x [4 x [2 x i32]]], [2 x [2 x i32]], [2 x [2 x [2 x i32]]], [2 x [64 x i16]], i32, i32, i32, i32, i32, [6 x i32], [6 x i32], [3 x ptr], ptr, [64 x i16], [64 x i16], [64 x i16], [64 x i16], i32, i32, %struct.GetBitContext, i32, i32, i32, i32, i32, i32, i32, i32, i32, i32, i32, i32, i32, i32, i32, i64, i64, i16, i16, i16, i16, i32, i32, i32, i32, i32, i32, i32, i32, i32, [3 x i32], i32, i32, i32, i32, i32, i32, %struct.GetBitContext, i32, [2 x [2 x i32]], i32, i32, i32, i32, i32, i32, i32, i32, i32, i32, i32, i32, i32, i32, [2 x i32], i32, i32, ptr, ptr, ptr, ptr, ptr, i32, i32, %struct.ERContext }
%struct.ScanTable = type { ptr, [64 x i8], [64 x i8] }
%struct.BufferPoolContext = type { ptr, ptr, ptr, ptr, ptr, i32, i32, i32 }
%union.anon = type { [32 x ptr] }
%struct.MPVWorkPicture = type { [3 x ptr], [3 x i64], ptr, ptr, [2 x ptr], ptr, ptr, [2 x ptr], i32 }
%struct.ScratchpadContext = type { ptr, ptr, %union.anon.0, i32 }
%union.anon.0 = type { ptr }
%struct.BlockDSPContext = type { ptr, ptr, [2 x ptr] }
%struct.H264ChromaContext = type { [4 x ptr], [4 x ptr] }
%struct.HpelDSPContext = type { [4 x [4 x ptr]], [4 x [4 x ptr]], [4 x [4 x ptr]], [4 x ptr] }
%struct.IDCTDSPContext = type { ptr, ptr, ptr, ptr, ptr, ptr, [64 x i8], i32, i32 }
%struct.QpelDSPContext = type { [2 x [16 x ptr]], [2 x [16 x ptr]], [2 x [16 x ptr]] }
%struct.VideoDSPContext = type { ptr, ptr }
%struct.H263DSPContext = type { ptr, ptr }
%struct.GetBitContext = type { ptr, ptr, i32, i32, i32 }
%struct.ERContext = type { ptr, ptr, i32, ptr, i32, i32, i32, i64, i64, i32, i32, ptr, ptr, [3 x ptr], ptr, ptr, [2 x [4 x [2 x i32]]], %struct.ERPicture, %struct.ERPicture, %struct.ERPicture, [2 x ptr], [2 x ptr], i16, i16, i32, i32, ptr, ptr }
%struct.ERPicture = type { ptr, ptr, ptr, [2 x ptr], [2 x ptr], ptr, i32 }
%struct.AVCodecContext = type { ptr, i32, i32, ptr, i32, i32, ptr, ptr, ptr, i64, i32, i32, ptr, i32, %struct.AVRational, %struct.AVRational, %struct.AVRational, i32, i32, i32, i32, i32, %struct.AVRational, i32, i32, i32, i32, i32, i32, i32, i32, i32, i32, i32, ptr, ptr, i32, float, float, float, float, float, float, float, float, float, i32, i32, i32, i32, i32, i32, i32, i32, i32, i32, i32, i32, ptr, ptr, ptr, i32, i32, i32, i32, i32, i32, i32, i32, i32, i32, %struct.AVChannelLayout, i32, i32, i32, i32, i32, i32, i32, i32, ptr, i32, i32, i32, float, float, i32, i32, i32, i32, i32, ptr, i64, i64, float, float, i32, i32, ptr, ptr, i32, i32, i32, i32, i32, ptr, ptr, ptr, ptr, i32, i32, [8 x i64], i32, i32, i32, i32, i32, i32, i32, ptr, ptr, i32, i32, i32, i32, i32, i32, i32, i32, i32, i32, ptr, ptr, i32, i32, ptr, ptr, ptr, ptr, i32, i32, i64, i32, i32, i64, ptr, i64, ptr, i32, ptr, i32 }
%struct.AVRational = type { i32, i32 }
%struct.AVChannelLayout = type { i32, i32, %union.anon.1, ptr }
%union.anon.1 = type { i64 }

@.str = private unnamed_addr constant [30 x i8] c"Assertion %s failed at %s:%d\0A\00", align 1
@.str.1 = private unnamed_addr constant [8 x i8] c"s != s1\00", align 1
@.str.2 = private unnamed_addr constant [27 x i8] c"libavcodec/mpegvideo_dec.c\00", align 1

; Function Attrs: nounwind uwtable
define i32 @ff_mpeg_update_thread_context(ptr noundef %0, ptr noundef %1) #3 {
  %3 = alloca i32, align 4
  %4 = alloca ptr, align 8
  %5 = alloca ptr, align 8
  %6 = alloca ptr, align 8
  %7 = alloca ptr, align 8
  %8 = alloca i32, align 4
  %9 = alloca i32, align 4
  store ptr %0, ptr %4, align 8, !tbaa !9
  store ptr %1, ptr %5, align 8, !tbaa !9
  call void @llvm.lifetime.start.p0(i64 8, ptr %6) #11
  %10 = load ptr, ptr %5, align 8, !tbaa !9
  %11 = getelementptr inbounds nuw %struct.AVCodecContext, ptr %10, i32 0, i32 6
  %12 = load ptr, ptr %11, align 8, !tbaa !69
  store ptr %12, ptr %6, align 8, !tbaa !4
  call void @llvm.lifetime.start.p0(i64 8, ptr %7) #11
  %13 = load ptr, ptr %4, align 8, !tbaa !9
  %14 = getelementptr inbounds nuw %struct.AVCodecContext, ptr %13, i32 0, i32 6
  %15 = load ptr, ptr %14, align 8, !tbaa !69
  store ptr %15, ptr %7, align 8, !tbaa !4
  call void @llvm.lifetime.start.p0(i64 4, ptr %8) #11
  store i32 0, ptr %8, align 4, !tbaa !68
  %16 = load ptr, ptr %4, align 8, !tbaa !9
  %17 = load ptr, ptr %5, align 8, !tbaa !9
  %18 = icmp eq ptr %16, %17
  br i1 %18, label %19, label %20

19:                                               ; preds = %2
  store i32 0, ptr %3, align 4
  store i32 1, ptr %9, align 4
  br label %139

20:                                               ; preds = %2
  br label %21

21:                                               ; preds = %20
  %22 = load ptr, ptr %7, align 8, !tbaa !4
  %23 = load ptr, ptr %6, align 8, !tbaa !4
  %24 = icmp ne ptr %22, %23
  br i1 %24, label %26, label %25

25:                                               ; preds = %21
  call void (ptr, i32, ptr, ...) @av_log(ptr noundef null, i32 noundef 0, ptr noundef @.str, ptr noundef @.str.1, ptr noundef @.str.2, i32 noundef 88)
  call void @abort() #12
  unreachable

26:                                               ; preds = %21
  br label %27

27:                                               ; preds = %26
  br label %28

28:                                               ; preds = %27
  %29 = load ptr, ptr %7, align 8, !tbaa !4
  %30 = getelementptr inbounds nuw %struct.MpegEncContext, ptr %29, i32 0, i32 13
  %31 = load i32, ptr %30, align 4, !tbaa !55
  %32 = load ptr, ptr %6, align 8, !tbaa !4
  %33 = getelementptr inbounds nuw %struct.MpegEncContext, ptr %32, i32 0, i32 13
  %34 = load i32, ptr %33, align 4, !tbaa !55
  %35 = icmp ne i32 %31, %34
  br i1 %35, label %49, label %36

36:                                               ; preds = %28
  %37 = load ptr, ptr %7, align 8, !tbaa !4
  %38 = getelementptr inbounds nuw %struct.MpegEncContext, ptr %37, i32 0, i32 12
  %39 = load i32, ptr %38, align 8, !tbaa !53
  %40 = load ptr, ptr %6, align 8, !tbaa !4
  %41 = getelementptr inbounds nuw %struct.MpegEncContext, ptr %40, i32 0, i32 12
  %42 = load i32, ptr %41, align 8, !tbaa !53
  %43 = icmp ne i32 %39, %42
  br i1 %43, label %49, label %44

44:                                               ; preds = %36
  %45 = load ptr, ptr %7, align 8, !tbaa !4
  %46 = getelementptr inbounds nuw %struct.MpegEncContext, ptr %45, i32 0, i32 159
  %47 = load i32, ptr %46, align 8, !tbaa !70
  %48 = icmp ne i32 %47, 0
  br i1 %48, label %49, label %66

49:                                               ; preds = %44, %36, %28
  %50 = load ptr, ptr %6, align 8, !tbaa !4
  %51 = getelementptr inbounds nuw %struct.MpegEncContext, ptr %50, i32 0, i32 13
  %52 = load i32, ptr %51, align 4, !tbaa !55
  %53 = load ptr, ptr %7, align 8, !tbaa !4
  %54 = getelementptr inbounds nuw %struct.MpegEncContext, ptr %53, i32 0, i32 13
  store i32 %52, ptr %54, align 4, !tbaa !55
  %55 = load ptr, ptr %6, align 8, !tbaa !4
  %56 = getelementptr inbounds nuw %struct.MpegEncContext, ptr %55, i32 0, i32 12
  %57 = load i32, ptr %56, align 8, !tbaa !53
  %58 = load ptr, ptr %7, align 8, !tbaa !4
  %59 = getelementptr inbounds nuw %struct.MpegEncContext, ptr %58, i32 0, i32 12
  store i32 %57, ptr %59, align 8, !tbaa !53
  %60 = load ptr, ptr %7, align 8, !tbaa !4
  %61 = call i32 @ff_mpv_common_frame_size_change(ptr noundef %60)
  store i32 %61, ptr %8, align 4, !tbaa !68
  %62 = icmp slt i32 %61, 0
  br i1 %62, label %63, label %65

63:                                               ; preds = %49
  %64 = load i32, ptr %8, align 4, !tbaa !68
  store i32 %64, ptr %3, align 4
  store i32 1, ptr %9, align 4
  br label %139

65:                                               ; preds = %49
  store i32 1, ptr %8, align 4, !tbaa !68
  br label %66

66:                                               ; preds = %65, %44
  %67 = load ptr, ptr %6, align 8, !tbaa !4
  %68 = getelementptr inbounds nuw %struct.MpegEncContext, ptr %67, i32 0, i32 119
  %69 = load i32, ptr %68, align 4, !tbaa !71
  %70 = load ptr, ptr %7, align 8, !tbaa !4
  %71 = getelementptr inbounds nuw %struct.MpegEncContext, ptr %70, i32 0, i32 119
  store i32 %69, ptr %71, align 4, !tbaa !71
  %72 = load ptr, ptr %6, align 8, !tbaa !4
  %73 = getelementptr inbounds nuw %struct.MpegEncContext, ptr %72, i32 0, i32 24
  %74 = load i32, ptr %73, align 8, !tbaa !72
  %75 = load ptr, ptr %7, align 8, !tbaa !4
  %76 = getelementptr inbounds nuw %struct.MpegEncContext, ptr %75, i32 0, i32 24
  store i32 %74, ptr %76, align 8, !tbaa !72
  %77 = load ptr, ptr %7, align 8, !tbaa !4
  %78 = getelementptr inbounds nuw %struct.MpegEncContext, ptr %77, i32 0, i32 42
  %79 = load ptr, ptr %6, align 8, !tbaa !4
  %80 = getelementptr inbounds nuw %struct.MpegEncContext, ptr %79, i32 0, i32 42
  call void @ff_mpv_replace_picture(ptr noundef %78, ptr noundef %80)
  %81 = load ptr, ptr %7, align 8, !tbaa !4
  %82 = getelementptr inbounds nuw %struct.MpegEncContext, ptr %81, i32 0, i32 40
  %83 = load ptr, ptr %6, align 8, !tbaa !4
  %84 = getelementptr inbounds nuw %struct.MpegEncContext, ptr %83, i32 0, i32 40
  call void @ff_mpv_replace_picture(ptr noundef %82, ptr noundef %84)
  %85 = load ptr, ptr %7, align 8, !tbaa !4
  %86 = getelementptr inbounds nuw %struct.MpegEncContext, ptr %85, i32 0, i32 41
  %87 = load ptr, ptr %6, align 8, !tbaa !4
  %88 = getelementptr inbounds nuw %struct.MpegEncContext, ptr %87, i32 0, i32 41
  call void @ff_mpv_replace_picture(ptr noundef %86, ptr noundef %88)
  %89 = load ptr, ptr %6, align 8, !tbaa !4
  %90 = getelementptr inbounds nuw %struct.MpegEncContext, ptr %89, i32 0, i32 32
  %91 = load i64, ptr %90, align 8, !tbaa !73
  %92 = load ptr, ptr %7, align 8, !tbaa !4
  %93 = getelementptr inbounds nuw %struct.MpegEncContext, ptr %92, i32 0, i32 32
  store i64 %91, ptr %93, align 8, !tbaa !73
  %94 = load ptr, ptr %6, align 8, !tbaa !4
  %95 = getelementptr inbounds nuw %struct.MpegEncContext, ptr %94, i32 0, i32 33
  %96 = load i64, ptr %95, align 8, !tbaa !74
  %97 = load ptr, ptr %7, align 8, !tbaa !4
  %98 = getelementptr inbounds nuw %struct.MpegEncContext, ptr %97, i32 0, i32 33
  store i64 %96, ptr %98, align 8, !tbaa !74
  %99 = load ptr, ptr %6, align 8, !tbaa !4
  %100 = getelementptr inbounds nuw %struct.MpegEncContext, ptr %99, i32 0, i32 21
  %101 = load i32, ptr %100, align 4, !tbaa !64
  %102 = load ptr, ptr %7, align 8, !tbaa !4
  %103 = getelementptr inbounds nuw %struct.MpegEncContext, ptr %102, i32 0, i32 21
  store i32 %101, ptr %103, align 4, !tbaa !64
  %104 = load ptr, ptr %6, align 8, !tbaa !4
  %105 = getelementptr inbounds nuw %struct.MpegEncContext, ptr %104, i32 0, i32 124
  %106 = load i32, ptr %105, align 8, !tbaa !75
  %107 = load ptr, ptr %7, align 8, !tbaa !4
  %108 = getelementptr inbounds nuw %struct.MpegEncContext, ptr %107, i32 0, i32 124
  store i32 %106, ptr %108, align 8, !tbaa !75
  %109 = load ptr, ptr %7, align 8, !tbaa !4
  %110 = getelementptr inbounds nuw %struct.MpegEncContext, ptr %109, i32 0, i32 110
  %111 = load ptr, ptr %6, align 8, !tbaa !4
  %112 = getelementptr inbounds nuw %struct.MpegEncContext, ptr %111, i32 0, i32 110
  %113 = load ptr, ptr %6, align 8, !tbaa !4
  %114 = getelementptr inbounds nuw %struct.MpegEncContext, ptr %113, i32 0, i32 117
  %115 = getelementptr inbounds nuw i8, ptr %114, i64 2
  %116 = load ptr, ptr %6, align 8, !tbaa !4
  %117 = getelementptr inbounds nuw %struct.MpegEncContext, ptr %116, i32 0, i32 110
  %118 = ptrtoint ptr %115 to i64
  %119 = ptrtoint ptr %117 to i64
  %120 = sub i64 %118, %119
  call void @llvm.memcpy.p0.p0.i64(ptr align 4 %110, ptr align 4 %112, i64 %120, i1 false)
  %121 = load ptr, ptr %6, align 8, !tbaa !4
  %122 = getelementptr inbounds nuw %struct.MpegEncContext, ptr %121, i32 0, i32 122
  %123 = load i32, ptr %122, align 8, !tbaa !76
  %124 = load ptr, ptr %7, align 8, !tbaa !4
  %125 = getelementptr inbounds nuw %struct.MpegEncContext, ptr %124, i32 0, i32 122
  store i32 %123, ptr %125, align 8, !tbaa !76
  %126 = load ptr, ptr %7, align 8, !tbaa !4
  %127 = getelementptr inbounds nuw %struct.MpegEncContext, ptr %126, i32 0, i32 135
  %128 = load ptr, ptr %6, align 8, !tbaa !4
  %129 = getelementptr inbounds nuw %struct.MpegEncContext, ptr %128, i32 0, i32 135
  %130 = load ptr, ptr %6, align 8, !tbaa !4
  %131 = getelementptr inbounds nuw %struct.MpegEncContext, ptr %130, i32 0, i32 153
  %132 = getelementptr inbounds nuw i8, ptr %131, i64 4
  %133 = load ptr, ptr %6, align 8, !tbaa !4
  %134 = getelementptr inbounds nuw %struct.MpegEncContext, ptr %133, i32 0, i32 135
  %135 = ptrtoint ptr %132 to i64
  %136 = ptrtoint ptr %134 to i64
  %137 = sub i64 %135, %136
  call void @llvm.memcpy.p0.p0.i64(ptr align 8 %127, ptr align 8 %129, i64 %137, i1 false)
  %138 = load i32, ptr %8, align 4, !tbaa !68
  store i32 %138, ptr %3, align 4
  store i32 1, ptr %9, align 4
  br label %139

139:                                              ; preds = %66, %63, %19
  call void @llvm.lifetime.end.p0(i64 4, ptr %8) #11
  call void @llvm.lifetime.end.p0(i64 8, ptr %7) #11
  call void @llvm.lifetime.end.p0(i64 8, ptr %6) #11
  %140 = load i32, ptr %3, align 4
  ret i32 %140
}