; Function Attrs: nounwind uwtable
define range(i32 -2147483648, 2) i32 @ff_mpeg_update_thread_context(ptr noundef readonly captures(address) %0, ptr noundef readonly captures(address) %1) local_unnamed_addr #3 {
  %3 = getelementptr inbounds nuw i8, ptr %1, i64 32
  %4 = load ptr, ptr %3, align 8, !tbaa !65
  %5 = getelementptr inbounds nuw i8, ptr %0, i64 32
  %6 = load ptr, ptr %5, align 8, !tbaa !65
  %7 = icmp eq ptr %0, %1
  br i1 %7, label %60, label %8

8:                                                ; preds = %2
  %.not = icmp eq ptr %6, %4
  br i1 %.not, label %9, label %10

9:                                                ; preds = %8
  tail call void (ptr, i32, ptr, ...) @av_log(ptr noundef null, i32 noundef 0, ptr noundef nonnull @.str, ptr noundef nonnull @.str.1, ptr noundef nonnull @.str.2, i32 noundef 88) #10
  tail call void @abort() #11
  unreachable

10:                                               ; preds = %8
  %11 = getelementptr inbounds nuw i8, ptr %6, i64 492
  %12 = load i32, ptr %11, align 4, !tbaa !52
  %13 = getelementptr inbounds nuw i8, ptr %4, i64 492
  %14 = load i32, ptr %13, align 4, !tbaa !52
  %.not50 = icmp eq i32 %12, %14
  br i1 %.not50, label %15, label %._crit_edge

._crit_edge:                                      ; preds = %10
  %.phi.trans.insert = getelementptr inbounds nuw i8, ptr %4, i64 488
  %.pre = load i32, ptr %.phi.trans.insert, align 8, !tbaa !50
  br label %23

15:                                               ; preds = %10
  %16 = getelementptr inbounds nuw i8, ptr %6, i64 488
  %17 = load i32, ptr %16, align 8, !tbaa !50
  %18 = getelementptr inbounds nuw i8, ptr %4, i64 488
  %19 = load i32, ptr %18, align 8, !tbaa !50
  %.not51 = icmp eq i32 %17, %19
  br i1 %.not51, label %20, label %23

20:                                               ; preds = %15
  %21 = getelementptr inbounds nuw i8, ptr %6, i64 4328
  %22 = load i32, ptr %21, align 8, !tbaa !66
  %.not52 = icmp eq i32 %22, 0
  br i1 %.not52, label %28, label %23

23:                                               ; preds = %._crit_edge, %20, %15
  %24 = phi i32 [ %.pre, %._crit_edge ], [ %17, %20 ], [ %19, %15 ]
  store i32 %14, ptr %11, align 4, !tbaa !52
  %25 = getelementptr inbounds nuw i8, ptr %6, i64 488
  store i32 %24, ptr %25, align 8, !tbaa !50
  %26 = tail call i32 @ff_mpv_common_frame_size_change(ptr noundef nonnull %6)
  %27 = icmp slt i32 %26, 0
  br i1 %27, label %60, label %28

28:                                               ; preds = %23, %20
  %.0 = phi i32 [ 0, %20 ], [ 1, %23 ]
  %29 = getelementptr inbounds nuw i8, ptr %4, i64 4092
  %30 = load i32, ptr %29, align 4, !tbaa !67
  %31 = getelementptr inbounds nuw i8, ptr %6, i64 4092
  store i32 %30, ptr %31, align 4, !tbaa !67
  %32 = getelementptr inbounds nuw i8, ptr %4, i64 536
  %33 = load i32, ptr %32, align 8, !tbaa !68
  %34 = getelementptr inbounds nuw i8, ptr %6, i64 536
  store i32 %33, ptr %34, align 8, !tbaa !68
  %35 = getelementptr inbounds nuw i8, ptr %6, i64 1160
  %36 = getelementptr inbounds nuw i8, ptr %4, i64 1160
  tail call void @ff_mpv_replace_picture(ptr noundef nonnull %35, ptr noundef nonnull %36) #10
  %37 = getelementptr inbounds nuw i8, ptr %6, i64 920
  %38 = getelementptr inbounds nuw i8, ptr %4, i64 920
  tail call void @ff_mpv_replace_picture(ptr noundef nonnull %37, ptr noundef nonnull %38) #10
  %39 = getelementptr inbounds nuw i8, ptr %6, i64 1040
  %40 = getelementptr inbounds nuw i8, ptr %4, i64 1040
  tail call void @ff_mpv_replace_picture(ptr noundef nonnull %39, ptr noundef nonnull %40) #10
  %41 = getelementptr inbounds nuw i8, ptr %4, i64 568
  %42 = load i64, ptr %41, align 8, !tbaa !69
  %43 = getelementptr inbounds nuw i8, ptr %6, i64 568
  store i64 %42, ptr %43, align 8, !tbaa !69
  %44 = getelementptr inbounds nuw i8, ptr %4, i64 576
  %45 = load i64, ptr %44, align 8, !tbaa !70
  %46 = getelementptr inbounds nuw i8, ptr %6, i64 576
  store i64 %45, ptr %46, align 8, !tbaa !70
  %47 = getelementptr inbounds nuw i8, ptr %4, i64 524
  %48 = load i32, ptr %47, align 4, !tbaa !61
  %49 = getelementptr inbounds nuw i8, ptr %6, i64 524
  store i32 %48, ptr %49, align 4, !tbaa !61
  %50 = getelementptr inbounds nuw i8, ptr %4, i64 4112
  %51 = load i32, ptr %50, align 8, !tbaa !71
  %52 = getelementptr inbounds nuw i8, ptr %6, i64 4112
  store i32 %51, ptr %52, align 8, !tbaa !71
  %53 = getelementptr inbounds nuw i8, ptr %6, i64 4052
  %54 = getelementptr inbounds nuw i8, ptr %4, i64 4052
  tail call void @llvm.memcpy.p0.p0.i64(ptr noundef nonnull align 4 dereferenceable(36) %53, ptr noundef nonnull align 4 dereferenceable(36) %54, i64 36, i1 false)
  %55 = getelementptr inbounds nuw i8, ptr %4, i64 4104
  %56 = load i32, ptr %55, align 8, !tbaa !72
  %57 = getelementptr inbounds nuw i8, ptr %6, i64 4104
  store i32 %56, ptr %57, align 8, !tbaa !72
  %58 = getelementptr inbounds nuw i8, ptr %6, i64 4192
  %59 = getelementptr inbounds nuw i8, ptr %4, i64 4192
  tail call void @llvm.memcpy.p0.p0.i64(ptr noundef nonnull align 8 dereferenceable(92) %58, ptr noundef nonnull align 8 dereferenceable(92) %59, i64 92, i1 false)
  br label %60

60:                                               ; preds = %23, %2, %28
  %.046 = phi i32 [ %.0, %28 ], [ 0, %2 ], [ %26, %23 ]
  ret i32 %.046
}